; Function Attrs: mustprogress uwtable
define void @_Z7TopMoveB5cxx11bRK8moveType(ptr dead_on_unwind noalias writable sret(%"class.std::__cxx11::basic_string") align 8 %0, i1 noundef zeroext %1, ptr noundef nonnull readonly align 4 captures(none) dereferenceable(16) %2) local_unnamed_addr #3 personality ptr @__gxx_personality_v0 {
  %4 = alloca %"class.std::__cxx11::basic_stringstream", align 8
  %5 = alloca %"class.std::allocator", align 1
  br i1 %1, label %6, label %26

6:                                                ; preds = %3
  call void @_ZNSt7__cxx1118basic_stringstreamIcSt11char_traitsIcESaIcEEC1Ev(ptr noundef nonnull align 8 dereferenceable(128) %4)
  %7 = getelementptr inbounds nuw i8, ptr %4, i64 16
  %8 = invoke noundef nonnull align 8 dereferenceable(8) ptr @_ZStlsISt11char_traitsIcEERSt13basic_ostreamIcT_ES5_PKc(ptr noundef nonnull align 8 dereferenceable(8) %7, ptr noundef nonnull @.str.26)
          to label %9 unwind label %24

9:                                                ; preds = %6
  %10 = load i32, ptr %2, align 4
  %11 = sext i32 %10 to i64
  %12 = getelementptr inbounds [5 x i8], ptr @cardSuit, i64 0, i64 %11
  %13 = load i8, ptr %12, align 1
  %14 = invoke noundef nonnull align 8 dereferenceable(8) ptr @_ZStlsISt11char_traitsIcEERSt13basic_ostreamIcT_ES5_h(ptr noundef nonnull align 8 dereferenceable(8) %8, i8 noundef zeroext %13)
          to label %15 unwind label %24

15:                                               ; preds = %9
  %16 = getelementptr inbounds nuw i8, ptr %2, i64 4
  %17 = load i32, ptr %16, align 4
  %18 = sext i32 %17 to i64
  %19 = getelementptr inbounds [16 x i8], ptr @cardRank, i64 0, i64 %18
  %20 = load i8, ptr %19, align 1
  %21 = invoke noundef nonnull align 8 dereferenceable(8) ptr @_ZStlsISt11char_traitsIcEERSt13basic_ostreamIcT_ES5_h(ptr noundef nonnull align 8 dereferenceable(8) %14, i8 noundef zeroext %20)
          to label %22 unwind label %24

22:                                               ; preds = %15
  invoke void @_ZNKSt7__cxx1118basic_stringstreamIcSt11char_traitsIcESaIcEE3strEv(ptr dead_on_unwind writable sret(%"class.std::__cxx11::basic_string") align 8 %0, ptr noundef nonnull align 8 dereferenceable(128) %4)
          to label %23 unwind label %24

23:                                               ; preds = %22
  call void @_ZNSt7__cxx1118basic_stringstreamIcSt11char_traitsIcESaIcEED1Ev(ptr noundef nonnull align 8 dereferenceable(128) %4) #12
  br label %32

24:                                               ; preds = %22, %15, %9, %6
  %25 = landingpad { ptr, i32 }
          cleanup
  call void @_ZNSt7__cxx1118basic_stringstreamIcSt11char_traitsIcESaIcEED1Ev(ptr noundef nonnull align 8 dereferenceable(128) %4) #12
  br label %33

26:                                               ; preds = %3
  call void @_ZNSaIcEC1Ev(ptr noundef nonnull align 1 dereferenceable(1) %5) #12
  %27 = invoke noundef ptr @_ZNSt7__cxx1112basic_stringIcSt11char_traitsIcESaIcEE13_M_local_dataEv(ptr noundef nonnull align 8 dereferenceable(32) %0)
          to label %.noexc unwind label %30

.noexc:                                           ; preds = %26
  invoke void @_ZNSt7__cxx1112basic_stringIcSt11char_traitsIcESaIcEE12_Alloc_hiderC1EPcRKS3_(ptr noundef nonnull align 8 dereferenceable(32) %0, ptr noundef %27, ptr noundef nonnull align 1 dereferenceable(1) %5)
          to label %.noexc6 unwind label %30

.noexc6:                                          ; preds = %.noexc
  invoke void @_ZNSt7__cxx1112basic_stringIcSt11char_traitsIcESaIcEE12_M_constructIPKcEEvT_S8_St20forward_iterator_tag(ptr noundef nonnull align 8 dereferenceable(32) %0, ptr noundef nonnull @.str.27, ptr noundef nonnull getelementptr inbounds nuw (i8, ptr @.str.27, i64 6))
          to label %_ZNSt7__cxx1112basic_stringIcSt11char_traitsIcESaIcEEC2IS3_EEPKcRKS3_.exit unwind label %28

28:                                               ; preds = %.noexc6
  %29 = landingpad { ptr, i32 }
          cleanup
  call void @_ZNSaIcED2Ev(ptr noundef nonnull align 8 dereferenceable(32) %0) #12
  br label %.body

_ZNSt7__cxx1112basic_stringIcSt11char_traitsIcESaIcEEC2IS3_EEPKcRKS3_.exit: ; preds = %.noexc6
  call void @_ZNSaIcED1Ev(ptr noundef nonnull align 1 dereferenceable(1) %5) #12
  br label %32

30:                                               ; preds = %.noexc, %26
  %31 = landingpad { ptr, i32 }
          cleanup
  br label %.body

.body:                                            ; preds = %28, %30
  %eh.lpad-body = phi { ptr, i32 } [ %31, %30 ], [ %29, %28 ]
  call void @_ZNSaIcED1Ev(ptr noundef nonnull align 1 dereferenceable(1) %5) #12
  br label %33

32:                                               ; preds = %_ZNSt7__cxx1112basic_stringIcSt11char_traitsIcESaIcEEC2IS3_EEPKcRKS3_.exit, %23
  ret void

33:                                               ; preds = %.body, %24
  %.pn = phi { ptr, i32 } [ %25, %24 ], [ %eh.lpad-body, %.body ]
  resume { ptr, i32 } %.pn
}